target datalayout = "e-m:e-p270:32:32-p271:32:32-p272:64:64-i64:64-i128:128-f80:128-n8:16:32:64-S128"
target triple = "x86_64-pc-linux-gnu"

@hf_gryphon_ignored = internal global i32 0, align 4
@hf_gryphon_reserved = internal global i32 0, align 4
@hf_gryphon_usdt_flags_register = internal global i32 0, align 4
@hf_gryphon_usdt_action_flags = internal global i32 0, align 4
@hf_gryphon_usdt_transmit_options_flags = internal global i32 0, align 4
@hf_gryphon_usdt_receive_options_flags = internal global i32 0, align 4
@hf_gryphon_usdt_ext_address = internal global i32 0, align 4
@hf_gryphon_usdt_ext_address_id = internal global i32 0, align 4
@hf_gryphon_usdt_block_size = internal global i32 0, align 4
@hf_gryphon_usdt_request = internal global i32 0, align 4
@hf_gryphon_usdt_response = internal global i32 0, align 4
@hf_gryphon_uudt_response = internal global i32 0, align 4
@ett_gryphon_flags = internal global i32 0, align 4
@ett_gryphon_usdt_data = internal global i32 0, align 4
@ett_gryphon_usdt_data_block = internal global i32 0, align 4
@cmd_usdt.action_flags = internal constant [3 x ptr] [ptr @hf_gryphon_usdt_action_flags_register, ptr @hf_gryphon_usdt_action_flags_action, ptr null], align 16
@cmd_usdt.transmit_option_flags = internal constant [4 x ptr] [ptr @hf_gryphon_usdt_transmit_options_flags_echo, ptr @hf_gryphon_usdt_transmit_options_action, ptr @hf_gryphon_usdt_transmit_options_send_done, ptr null], align 16
@cmd_usdt.receive_option_flags = internal constant [4 x ptr] [ptr @hf_gryphon_usdt_receive_options_action, ptr @hf_gryphon_usdt_receive_options_firstframe, ptr @hf_gryphon_usdt_receive_options_lastframe, ptr null], align 16
@.str.1063 = private unnamed_addr constant [65 x i8] c"Using extended addressing for the single, internally defined, ID\00", align 1
@.str.1064 = private unnamed_addr constant [26 x i8] c"%s block of USDT/UUDT IDs\00", align 1
@.str.1065 = private unnamed_addr constant [6 x i8] c"First\00", align 1
@.str.1066 = private unnamed_addr constant [7 x i8] c"Second\00", align 1
@.str.1067 = private unnamed_addr constant [18 x i8] c"%04X through %04X\00", align 1

; Function Attrs: null_pointer_is_valid sspstrong uwtable
define internal i32 @cmd_usdt(ptr noundef %0, i32 noundef %1, ptr noundef %2) #0 {
  %4 = alloca ptr, align 8
  %5 = alloca i32, align 4
  %6 = alloca ptr, align 8
  %7 = alloca i32, align 4
  %8 = alloca i32, align 4
  %9 = alloca i32, align 4
  %10 = alloca i32, align 4
  %11 = alloca i32, align 4
  %12 = alloca i32, align 4
  %13 = alloca i8, align 1
  %14 = alloca ptr, align 8
  %15 = alloca ptr, align 8
  store ptr %0, ptr %4, align 8
  store i32 %1, ptr %5, align 4
  store ptr %2, ptr %6, align 8
  call void @llvm.lifetime.start.p0(i64 4, ptr %7) #7
  call void @llvm.lifetime.start.p0(i64 4, ptr %8) #7
  call void @llvm.lifetime.start.p0(i64 4, ptr %9) #7
  call void @llvm.lifetime.start.p0(i64 4, ptr %10) #7
  call void @llvm.lifetime.start.p0(i64 4, ptr %11) #7
  call void @llvm.lifetime.start.p0(i64 4, ptr %12) #7
  call void @llvm.lifetime.start.p0(i64 1, ptr %13) #7
  call void @llvm.lifetime.start.p0(i64 8, ptr %14) #7
  call void @llvm.lifetime.start.p0(i64 8, ptr %15) #7
  %16 = load ptr, ptr %4, align 8
  %17 = load i32, ptr %5, align 4
  %18 = call zeroext i8 @tvb_get_uint8(ptr noundef %16, i32 noundef %17)
  store i8 %18, ptr %13, align 1
  %19 = load ptr, ptr %6, align 8
  %20 = load i32, ptr @hf_gryphon_usdt_flags_register, align 4
  %21 = load ptr, ptr %4, align 8
  %22 = load i32, ptr %5, align 4
  %23 = call ptr @proto_tree_add_item(ptr noundef %19, i32 noundef %20, ptr noundef %21, i32 noundef %22, i32 noundef 1, i32 noundef 0)
  %24 = load i8, ptr %13, align 1
  %25 = zext i8 %24 to i32
  %26 = and i32 %25, 1
  %27 = icmp ne i32 %26, 0
  br i1 %27, label %28, label %181

28:                                               ; preds = %3
  %29 = load ptr, ptr %6, align 8
  %30 = load ptr, ptr %4, align 8
  %31 = load i32, ptr %5, align 4
  %32 = load i32, ptr @hf_gryphon_usdt_action_flags, align 4
  %33 = load i32, ptr @ett_gryphon_flags, align 4
  %34 = call ptr @proto_tree_add_bitmask(ptr noundef %29, ptr noundef %30, i32 noundef %31, i32 noundef %32, i32 noundef %33, ptr noundef @cmd_usdt.action_flags, i32 noundef 0)
  %35 = load ptr, ptr %6, align 8
  %36 = load ptr, ptr %4, align 8
  %37 = load i32, ptr %5, align 4
  %38 = add i32 %37, 1
  %39 = load i32, ptr @hf_gryphon_usdt_transmit_options_flags, align 4
  %40 = load i32, ptr @ett_gryphon_flags, align 4
  %41 = call ptr @proto_tree_add_bitmask(ptr noundef %35, ptr noundef %36, i32 noundef %38, i32 noundef %39, i32 noundef %40, ptr noundef @cmd_usdt.transmit_option_flags, i32 noundef 0)
  %42 = load ptr, ptr %6, align 8
  %43 = load ptr, ptr %4, align 8
  %44 = load i32, ptr %5, align 4
  %45 = add i32 %44, 2
  %46 = load i32, ptr @hf_gryphon_usdt_receive_options_flags, align 4
  %47 = load i32, ptr @ett_gryphon_flags, align 4
  %48 = call ptr @proto_tree_add_bitmask(ptr noundef %42, ptr noundef %43, i32 noundef %45, i32 noundef %46, i32 noundef %47, ptr noundef @cmd_usdt.receive_option_flags, i32 noundef 0)
  %49 = load ptr, ptr %4, align 8
  %50 = load i32, ptr %5, align 4
  %51 = add i32 %50, 3
  %52 = call zeroext i8 @tvb_get_uint8(ptr noundef %49, i32 noundef %51)
  %53 = zext i8 %52 to i32
  store i32 %53, ptr %7, align 4
  %54 = icmp ne i32 %53, 0
  br i1 %54, label %55, label %81

55:                                               ; preds = %28
  %56 = load ptr, ptr %6, align 8
  %57 = load i32, ptr @hf_gryphon_usdt_ext_address, align 4
  %58 = load ptr, ptr %4, align 8
  %59 = load i32, ptr %5, align 4
  %60 = add i32 %59, 3
  %61 = call ptr @proto_tree_add_item(ptr noundef %56, i32 noundef %57, ptr noundef %58, i32 noundef %60, i32 noundef 1, i32 noundef 0)
  store ptr %61, ptr %15, align 8
  %62 = load i32, ptr %5, align 4
  %63 = add i32 %62, 4
  store i32 %63, ptr %5, align 4
  %64 = load ptr, ptr %15, align 8
  %65 = load i32, ptr @ett_gryphon_usdt_data, align 4
  %66 = call ptr @proto_item_add_subtree(ptr noundef %64, i32 noundef %65)
  store ptr %66, ptr %14, align 8
  br label %67

67:                                               ; preds = %70, %55
  %68 = load i32, ptr %7, align 4
  %69 = icmp ne i32 %68, 0
  br i1 %69, label %70, label %80

70:                                               ; preds = %67
  %71 = load ptr, ptr %14, align 8
  %72 = load i32, ptr @hf_gryphon_usdt_ext_address_id, align 4
  %73 = load ptr, ptr %4, align 8
  %74 = load i32, ptr %5, align 4
  %75 = call ptr @proto_tree_add_item(ptr noundef %71, i32 noundef %72, ptr noundef %73, i32 noundef %74, i32 noundef 4, i32 noundef 0)
  %76 = load i32, ptr %5, align 4
  %77 = add i32 %76, 4
  store i32 %77, ptr %5, align 4
  %78 = load i32, ptr %7, align 4
  %79 = add i32 %78, -1
  store i32 %79, ptr %7, align 4
  br label %67, !llvm.loop !20

80:                                               ; preds = %67
  br label %90

81:                                               ; preds = %28
  %82 = load ptr, ptr %6, align 8
  %83 = load i32, ptr @hf_gryphon_usdt_ext_address, align 4
  %84 = load ptr, ptr %4, align 8
  %85 = load i32, ptr %5, align 4
  %86 = add i32 %85, 3
  %87 = call ptr (ptr, i32, ptr, i32, i32, i32, ptr, ...) @proto_tree_add_uint_format_value(ptr noundef %82, i32 noundef %83, ptr noundef %84, i32 noundef %86, i32 noundef 1, i32 noundef 0, ptr noundef @.str.1063)
  %88 = load i32, ptr %5, align 4
  %89 = add i32 %88, 4
  store i32 %89, ptr %5, align 4
  br label %90

90:                                               ; preds = %81, %80
  store i32 0, ptr %11, align 4
  br label %91

91:                                               ; preds = %177, %90
  %92 = load i32, ptr %11, align 4
  %93 = icmp slt i32 %92, 2
  br i1 %93, label %94, label %180

94:                                               ; preds = %91
  %95 = load ptr, ptr %4, align 8
  %96 = load i32, ptr %5, align 4
  %97 = call i32 @tvb_reported_length_remaining(ptr noundef %95, i32 noundef %96)
  store i32 %97, ptr %12, align 4
  %98 = load i32, ptr %12, align 4
  %99 = icmp sle i32 %98, 0
  br i1 %99, label %100, label %101

100:                                              ; preds = %94
  br label %180

101:                                              ; preds = %94
  %102 = load ptr, ptr %6, align 8
  %103 = load ptr, ptr %4, align 8
  %104 = load i32, ptr %5, align 4
  %105 = load i32, ptr @ett_gryphon_usdt_data, align 4
  %106 = load i32, ptr %11, align 4
  %107 = icmp eq i32 %106, 0
  %108 = select i1 %107, ptr @.str.1065, ptr @.str.1066
  %109 = call ptr (ptr, ptr, i32, i32, i32, ptr, ptr, ...) @proto_tree_add_subtree_format(ptr noundef %102, ptr noundef %103, i32 noundef %104, i32 noundef 16, i32 noundef %105, ptr noundef null, ptr noundef @.str.1064, ptr noundef %108)
  store ptr %109, ptr %14, align 8
  %110 = load ptr, ptr %4, align 8
  %111 = load i32, ptr %5, align 4
  %112 = call i32 @tvb_get_ntohl(ptr noundef %110, i32 noundef %111)
  store i32 %112, ptr %10, align 4
  %113 = load ptr, ptr %14, align 8
  %114 = load i32, ptr @hf_gryphon_usdt_block_size, align 4
  %115 = load ptr, ptr %4, align 8
  %116 = load i32, ptr %5, align 4
  %117 = call ptr @proto_tree_add_item(ptr noundef %113, i32 noundef %114, ptr noundef %115, i32 noundef %116, i32 noundef 4, i32 noundef 0)
  store ptr %117, ptr %15, align 8
  %118 = load ptr, ptr %15, align 8
  %119 = load i32, ptr @ett_gryphon_usdt_data_block, align 4
  %120 = call ptr @proto_item_add_subtree(ptr noundef %118, i32 noundef %119)
  store ptr %120, ptr %14, align 8
  %121 = load i32, ptr %10, align 4
  %122 = icmp eq i32 %121, 0
  br i1 %122, label %123, label %125

123:                                              ; preds = %101
  %124 = load ptr, ptr %15, align 8
  call void @proto_item_set_len(ptr noundef %124, i32 noundef 16)
  br label %176

125:                                              ; preds = %101
  %126 = load i32, ptr %5, align 4
  %127 = add i32 %126, 4
  store i32 %127, ptr %5, align 4
  %128 = load ptr, ptr %4, align 8
  %129 = load i32, ptr %5, align 4
  %130 = call i32 @tvb_get_ntohl(ptr noundef %128, i32 noundef %129)
  store i32 %130, ptr %8, align 4
  %131 = load ptr, ptr %14, align 8
  %132 = load i32, ptr @hf_gryphon_usdt_request, align 4
  %133 = load ptr, ptr %4, align 8
  %134 = load i32, ptr %5, align 4
  %135 = load i32, ptr %8, align 4
  %136 = load i32, ptr %8, align 4
  %137 = load i32, ptr %8, align 4
  %138 = load i32, ptr %10, align 4
  %139 = add i32 %137, %138
  %140 = sub i32 %139, 1
  %141 = call ptr (ptr, i32, ptr, i32, i32, i32, ptr, ...) @proto_tree_add_uint_format_value(ptr noundef %131, i32 noundef %132, ptr noundef %133, i32 noundef %134, i32 noundef 4, i32 noundef %135, ptr noundef @.str.1067, i32 noundef %136, i32 noundef %140)
  %142 = load i32, ptr %5, align 4
  %143 = add i32 %142, 4
  store i32 %143, ptr %5, align 4
  %144 = load ptr, ptr %4, align 8
  %145 = load i32, ptr %5, align 4
  %146 = call i32 @tvb_get_ntohl(ptr noundef %144, i32 noundef %145)
  store i32 %146, ptr %8, align 4
  %147 = load ptr, ptr %14, align 8
  %148 = load i32, ptr @hf_gryphon_usdt_response, align 4
  %149 = load ptr, ptr %4, align 8
  %150 = load i32, ptr %5, align 4
  %151 = load i32, ptr %8, align 4
  %152 = load i32, ptr %8, align 4
  %153 = load i32, ptr %8, align 4
  %154 = load i32, ptr %10, align 4
  %155 = add i32 %153, %154
  %156 = sub i32 %155, 1
  %157 = call ptr (ptr, i32, ptr, i32, i32, i32, ptr, ...) @proto_tree_add_uint_format_value(ptr noundef %147, i32 noundef %148, ptr noundef %149, i32 noundef %150, i32 noundef 4, i32 noundef %151, ptr noundef @.str.1067, i32 noundef %152, i32 noundef %156)
  %158 = load i32, ptr %5, align 4
  %159 = add i32 %158, 4
  store i32 %159, ptr %5, align 4
  %160 = load ptr, ptr %4, align 8
  %161 = load i32, ptr %5, align 4
  %162 = call i32 @tvb_get_ntohl(ptr noundef %160, i32 noundef %161)
  store i32 %162, ptr %8, align 4
  %163 = load ptr, ptr %14, align 8
  %164 = load i32, ptr @hf_gryphon_uudt_response, align 4
  %165 = load ptr, ptr %4, align 8
  %166 = load i32, ptr %5, align 4
  %167 = load i32, ptr %8, align 4
  %168 = load i32, ptr %8, align 4
  %169 = load i32, ptr %8, align 4
  %170 = load i32, ptr %10, align 4
  %171 = add i32 %169, %170
  %172 = sub i32 %171, 1
  %173 = call ptr (ptr, i32, ptr, i32, i32, i32, ptr, ...) @proto_tree_add_uint_format_value(ptr noundef %163, i32 noundef %164, ptr noundef %165, i32 noundef %166, i32 noundef 4, i32 noundef %167, ptr noundef @.str.1067, i32 noundef %168, i32 noundef %172)
  %174 = load i32, ptr %5, align 4
  %175 = add i32 %174, 4
  store i32 %175, ptr %5, align 4
  br label %176

176:                                              ; preds = %125, %123
  br label %177

177:                                              ; preds = %176
  %178 = load i32, ptr %11, align 4
  %179 = add i32 %178, 1
  store i32 %179, ptr %11, align 4
  br label %91, !llvm.loop !21

180:                                              ; preds = %100, %91
  br label %190

181:                                              ; preds = %3
  %182 = load ptr, ptr %6, align 8
  %183 = load i32, ptr @hf_gryphon_reserved, align 4
  %184 = load ptr, ptr %4, align 8
  %185 = load i32, ptr %5, align 4
  %186 = add i32 %185, 1
  %187 = call ptr @proto_tree_add_item(ptr noundef %182, i32 noundef %183, ptr noundef %184, i32 noundef %186, i32 noundef 3, i32 noundef 0)
  %188 = load i32, ptr %5, align 4
  %189 = add i32 %188, 4
  store i32 %189, ptr %5, align 4
  br label %190

190:                                              ; preds = %181, %180
  %191 = load ptr, ptr %4, align 8
  %192 = load i32, ptr %5, align 4
  %193 = call i32 @tvb_reported_length_remaining(ptr noundef %191, i32 noundef %192)
  store i32 %193, ptr %9, align 4
  %194 = icmp ne i32 %193, 0
  br i1 %194, label %195, label %205

195:                                              ; preds = %190
  %196 = load ptr, ptr %6, align 8
  %197 = load i32, ptr @hf_gryphon_ignored, align 4
  %198 = load ptr, ptr %4, align 8
  %199 = load i32, ptr %5, align 4
  %200 = load i32, ptr %9, align 4
  %201 = call ptr @proto_tree_add_item(ptr noundef %196, i32 noundef %197, ptr noundef %198, i32 noundef %199, i32 noundef %200, i32 noundef 0)
  %202 = load i32, ptr %9, align 4
  %203 = load i32, ptr %5, align 4
  %204 = add i32 %203, %202
  store i32 %204, ptr %5, align 4
  br label %205

205:                                              ; preds = %195, %190
  %206 = load i32, ptr %5, align 4
  call void @llvm.lifetime.end.p0(i64 8, ptr %15) #7
  call void @llvm.lifetime.end.p0(i64 8, ptr %14) #7
  call void @llvm.lifetime.end.p0(i64 1, ptr %13) #7
  call void @llvm.lifetime.end.p0(i64 4, ptr %12) #7
  call void @llvm.lifetime.end.p0(i64 4, ptr %11) #7
  call void @llvm.lifetime.end.p0(i64 4, ptr %10) #7
  call void @llvm.lifetime.end.p0(i64 4, ptr %9) #7
  call void @llvm.lifetime.end.p0(i64 4, ptr %8) #7
  call void @llvm.lifetime.end.p0(i64 4, ptr %7) #7
  ret i32 %206
}