; Function Attrs: null_pointer_is_valid sspstrong uwtable
define internal fastcc i32 @cmd_usdt(ptr noundef %0, ptr noundef %1) unnamed_addr #0 {
  %3 = tail call zeroext i8 @tvb_get_uint8(ptr noundef %0, i32 noundef 12)
  %4 = load i32, ptr @hf_gryphon_usdt_flags_register, align 4
  %5 = tail call ptr @proto_tree_add_item(ptr noundef %1, i32 noundef %4, ptr noundef %0, i32 noundef 12, i32 noundef 1, i32 noundef 0)
  %6 = and i8 %3, 1
  %.not = icmp eq i8 %6, 0
  br i1 %.not, label %65, label %7

7:                                                ; preds = %2
  %8 = load i32, ptr @hf_gryphon_usdt_action_flags, align 4
  %9 = load i32, ptr @ett_gryphon_flags, align 4
  %10 = tail call ptr @proto_tree_add_bitmask(ptr noundef %1, ptr noundef %0, i32 noundef 12, i32 noundef %8, i32 noundef %9, ptr noundef nonnull @cmd_usdt.action_flags, i32 noundef 0)
  %11 = load i32, ptr @hf_gryphon_usdt_transmit_options_flags, align 4
  %12 = load i32, ptr @ett_gryphon_flags, align 4
  %13 = tail call ptr @proto_tree_add_bitmask(ptr noundef %1, ptr noundef %0, i32 noundef 13, i32 noundef %11, i32 noundef %12, ptr noundef nonnull @cmd_usdt.transmit_option_flags, i32 noundef 0)
  %14 = load i32, ptr @hf_gryphon_usdt_receive_options_flags, align 4
  %15 = load i32, ptr @ett_gryphon_flags, align 4
  %16 = tail call ptr @proto_tree_add_bitmask(ptr noundef %1, ptr noundef %0, i32 noundef 14, i32 noundef %14, i32 noundef %15, ptr noundef nonnull @cmd_usdt.receive_option_flags, i32 noundef 0)
  %17 = tail call zeroext i8 @tvb_get_uint8(ptr noundef %0, i32 noundef 15)
  %.not97 = icmp eq i8 %17, 0
  br i1 %.not97, label %29, label %18

18:                                               ; preds = %7
  %19 = zext i8 %17 to i32
  %20 = load i32, ptr @hf_gryphon_usdt_ext_address, align 4
  %21 = tail call ptr @proto_tree_add_item(ptr noundef %1, i32 noundef %20, ptr noundef %0, i32 noundef 15, i32 noundef 1, i32 noundef 0)
  %22 = load i32, ptr @ett_gryphon_usdt_data, align 4
  %23 = tail call ptr @proto_item_add_subtree(ptr noundef %21, i32 noundef %22)
  br label %24

24:                                               ; preds = %18, %24
  %.0102 = phi i32 [ 16, %18 ], [ %27, %24 ]
  %.092101 = phi i32 [ %19, %18 ], [ %28, %24 ]
  %25 = load i32, ptr @hf_gryphon_usdt_ext_address_id, align 4
  %26 = tail call ptr @proto_tree_add_item(ptr noundef %23, i32 noundef %25, ptr noundef %0, i32 noundef %.0102, i32 noundef 4, i32 noundef 0)
  %27 = add nuw nsw i32 %.0102, 4
  %28 = add nsw i32 %.092101, -1
  %.not98 = icmp eq i32 %28, 0
  br i1 %.not98, label %.loopexit100.preheader, label %24, !llvm.loop !20

29:                                               ; preds = %7
  %30 = load i32, ptr @hf_gryphon_usdt_ext_address, align 4
  %31 = tail call ptr (ptr, i32, ptr, i32, i32, i32, ptr, ...) @proto_tree_add_uint_format_value(ptr noundef %1, i32 noundef %30, ptr noundef %0, i32 noundef 15, i32 noundef 1, i32 noundef 0, ptr noundef nonnull @.str.1063)
  br label %.loopexit100.preheader

.loopexit100.preheader:                           ; preds = %24, %29
  %.2104.ph = phi i32 [ 16, %29 ], [ %27, %24 ]
  br label %.loopexit100

.loopexit100:                                     ; preds = %.loopexit100.preheader, %64
  %.2104 = phi i32 [ %.3, %64 ], [ %.2104.ph, %.loopexit100.preheader ]
  %32 = phi i1 [ false, %64 ], [ true, %.loopexit100.preheader ]
  %33 = tail call i32 @tvb_reported_length_remaining(ptr noundef %0, i32 noundef %.2104)
  %34 = icmp slt i32 %33, 1
  br i1 %34, label %.loopexit, label %35

35:                                               ; preds = %.loopexit100
  %36 = load i32, ptr @ett_gryphon_usdt_data, align 4
  %37 = select i1 %32, ptr @.str.1065, ptr @.str.1066
  %38 = tail call ptr (ptr, ptr, i32, i32, i32, ptr, ptr, ...) @proto_tree_add_subtree_format(ptr noundef %1, ptr noundef %0, i32 noundef %.2104, i32 noundef 16, i32 noundef %36, ptr noundef null, ptr noundef nonnull @.str.1064, ptr noundef nonnull %37)
  %39 = tail call i32 @tvb_get_ntohl(ptr noundef %0, i32 noundef %.2104)
  %40 = load i32, ptr @hf_gryphon_usdt_block_size, align 4
  %41 = tail call ptr @proto_tree_add_item(ptr noundef %38, i32 noundef %40, ptr noundef %0, i32 noundef %.2104, i32 noundef 4, i32 noundef 0)
  %42 = load i32, ptr @ett_gryphon_usdt_data_block, align 4
  %43 = tail call ptr @proto_item_add_subtree(ptr noundef %41, i32 noundef %42)
  %44 = icmp eq i32 %39, 0
  br i1 %44, label %45, label %46

45:                                               ; preds = %35
  tail call void @proto_item_set_len(ptr noundef %41, i32 noundef 16)
  br label %64

46:                                               ; preds = %35
  %47 = add i32 %.2104, 4
  %48 = tail call i32 @tvb_get_ntohl(ptr noundef %0, i32 noundef %47)
  %49 = load i32, ptr @hf_gryphon_usdt_request, align 4
  %50 = add i32 %39, -1
  %51 = add i32 %50, %48
  %52 = tail call ptr (ptr, i32, ptr, i32, i32, i32, ptr, ...) @proto_tree_add_uint_format_value(ptr noundef %43, i32 noundef %49, ptr noundef %0, i32 noundef %47, i32 noundef 4, i32 noundef %48, ptr noundef nonnull @.str.1067, i32 noundef %48, i32 noundef %51)
  %53 = add i32 %.2104, 8
  %54 = tail call i32 @tvb_get_ntohl(ptr noundef %0, i32 noundef %53)
  %55 = load i32, ptr @hf_gryphon_usdt_response, align 4
  %56 = add i32 %50, %54
  %57 = tail call ptr (ptr, i32, ptr, i32, i32, i32, ptr, ...) @proto_tree_add_uint_format_value(ptr noundef %43, i32 noundef %55, ptr noundef %0, i32 noundef %53, i32 noundef 4, i32 noundef %54, ptr noundef nonnull @.str.1067, i32 noundef %54, i32 noundef %56)
  %58 = add i32 %.2104, 12
  %59 = tail call i32 @tvb_get_ntohl(ptr noundef %0, i32 noundef %58)
  %60 = load i32, ptr @hf_gryphon_uudt_response, align 4
  %61 = add i32 %50, %59
  %62 = tail call ptr (ptr, i32, ptr, i32, i32, i32, ptr, ...) @proto_tree_add_uint_format_value(ptr noundef %43, i32 noundef %60, ptr noundef %0, i32 noundef %58, i32 noundef 4, i32 noundef %59, ptr noundef nonnull @.str.1067, i32 noundef %59, i32 noundef %61)
  %63 = add i32 %.2104, 16
  br label %64

64:                                               ; preds = %45, %46
  %.3 = phi i32 [ %.2104, %45 ], [ %63, %46 ]
  br i1 %32, label %.loopexit100, label %.loopexit, !llvm.loop !21

65:                                               ; preds = %2
  %66 = load i32, ptr @hf_gryphon_reserved, align 4
  %67 = tail call ptr @proto_tree_add_item(ptr noundef %1, i32 noundef %66, ptr noundef %0, i32 noundef 13, i32 noundef 3, i32 noundef 0)
  br label %.loopexit

.loopexit:                                        ; preds = %64, %.loopexit100, %65
  %.4 = phi i32 [ 16, %65 ], [ %.2104, %.loopexit100 ], [ %.3, %64 ]
  %68 = tail call i32 @tvb_reported_length_remaining(ptr noundef %0, i32 noundef %.4)
  %.not99 = icmp eq i32 %68, 0
  br i1 %.not99, label %73, label %69

69:                                               ; preds = %.loopexit
  %70 = load i32, ptr @hf_gryphon_ignored, align 4
  %71 = tail call ptr @proto_tree_add_item(ptr noundef %1, i32 noundef %70, ptr noundef %0, i32 noundef %.4, i32 noundef %68, i32 noundef 0)
  %72 = add i32 %68, %.4
  br label %73

73:                                               ; preds = %69, %.loopexit
  %.5 = phi i32 [ %72, %69 ], [ %.4, %.loopexit ]
  ret i32 %.5
}